target datalayout = "e-m:e-p270:32:32-p271:32:32-p272:64:64-i64:64-i128:128-f80:128-n8:16:32:64-S128"
target triple = "x86_64-pc-linux-gnu"

%struct.Bmcg_Man_t_ = type { ptr, ptr, ptr, ptr, %struct.Vec_Ptr_t_, %struct.Vec_Int_t_, %struct.Vec_Int_t_, [100 x ptr], i32, i32, i32, i32, i64, i64, i64, i64, i64 }
%struct.Vec_Ptr_t_ = type { i32, i32, ptr }
%struct.Vec_Int_t_ = type { i32, i32, ptr }
%struct.Gia_Man_t_ = type { ptr, ptr, i32, i32, i32, i32, ptr, ptr, i32, i32, i32, ptr, ptr, %struct.Vec_Int_t_, %struct.Vec_Int_t_, i32, i32, i32, %struct.Vec_Int_t_, ptr, ptr, ptr, i32, i32, i32, i32, ptr, ptr, ptr, ptr, ptr, i32, i32, ptr, i32, ptr, ptr, ptr, ptr, ptr, ptr, ptr, ptr, ptr, ptr, ptr, ptr, ptr, ptr, ptr, ptr, ptr, ptr, %struct.Vec_Int_t_, %struct.Vec_Int_t_, ptr, ptr, ptr, ptr, ptr, ptr, ptr, ptr, ptr, ptr, ptr, ptr, ptr, ptr, ptr, ptr, ptr, ptr, ptr, ptr, ptr, i32, float, float, ptr, ptr, i32, ptr, ptr, ptr, ptr, ptr, ptr, ptr, ptr, ptr, ptr, ptr, ptr, ptr, ptr, ptr, i64, i64, ptr, ptr, i32, i32, i32, i32, i32, i32, i32, i32, i32, i32, i32, i32, ptr, ptr, ptr, ptr, ptr, ptr, ptr, ptr, i32, i32, i32, ptr, i32, i32, ptr, ptr, ptr, ptr, ptr, ptr, i32, i32, ptr, %struct.Vec_Int_t_, %struct.Vec_Int_t_, %struct.Vec_Int_t_, ptr, ptr, ptr, i32, i32, i32, i32, ptr, ptr, ptr, ptr, ptr }
%struct.Gia_Obj_t_ = type <{ i64, i32 }>
%struct.Abc_Cex_t_ = type { i32, i32, i32, i32, i32, [0 x i32] }

; Function Attrs: inlinehint nounwind uwtable
define internal ptr @Gia_ManObj(ptr noundef %0, i32 noundef %1) #3 {
  %3 = alloca ptr, align 8
  %4 = alloca i32, align 4
  store ptr %0, ptr %3, align 8, !tbaa !3
  store i32 %1, ptr %4, align 4, !tbaa !12
  %5 = load ptr, ptr %3, align 8, !tbaa !3
  %6 = getelementptr inbounds nuw %struct.Gia_Man_t_, ptr %5, i32 0, i32 6
  %7 = load ptr, ptr %6, align 8, !tbaa !59
  %8 = load i32, ptr %4, align 4, !tbaa !12
  %9 = sext i32 %8 to i64
  %10 = getelementptr inbounds %struct.Gia_Obj_t_, ptr %7, i64 %9
  ret ptr %10
}

; Function Attrs: inlinehint nounwind uwtable
define internal i32 @Vec_IntSize(ptr noundef %0) #3 {
  %2 = alloca ptr, align 8
  store ptr %0, ptr %2, align 8, !tbaa !49
  %3 = load ptr, ptr %2, align 8, !tbaa !49
  %4 = getelementptr inbounds nuw %struct.Vec_Int_t_, ptr %3, i32 0, i32 1
  %5 = load i32, ptr %4, align 4, !tbaa !53
  ret i32 %5
}

; Function Attrs: inlinehint nounwind uwtable
define internal void @Abc_InfoSetBit(ptr noundef %0, i32 noundef %1) #3 {
  %3 = alloca ptr, align 8
  %4 = alloca i32, align 4
  store ptr %0, ptr %3, align 8, !tbaa !57
  store i32 %1, ptr %4, align 4, !tbaa !12
  %5 = load i32, ptr %4, align 4, !tbaa !12
  %6 = and i32 %5, 31
  %7 = shl i32 1, %6
  %8 = load ptr, ptr %3, align 8, !tbaa !57
  %9 = load i32, ptr %4, align 4, !tbaa !12
  %10 = ashr i32 %9, 5
  %11 = sext i32 %10 to i64
  %12 = getelementptr inbounds i32, ptr %8, i64 %11
  %13 = load i32, ptr %12, align 4, !tbaa !12
  %14 = or i32 %13, %7
  store i32 %14, ptr %12, align 4, !tbaa !12
  ret void
}

; Function Attrs: inlinehint nounwind uwtable
define internal i32 @Vec_IntEntry(ptr noundef %0, i32 noundef %1) #3 {
  %3 = alloca ptr, align 8
  %4 = alloca i32, align 4
  store ptr %0, ptr %3, align 8, !tbaa !49
  store i32 %1, ptr %4, align 4, !tbaa !12
  %5 = load ptr, ptr %3, align 8, !tbaa !49
  %6 = getelementptr inbounds nuw %struct.Vec_Int_t_, ptr %5, i32 0, i32 2
  %7 = load ptr, ptr %6, align 8, !tbaa !51
  %8 = load i32, ptr %4, align 4, !tbaa !12
  %9 = sext i32 %8 to i64
  %10 = getelementptr inbounds i32, ptr %7, i64 %9
  %11 = load i32, ptr %10, align 4, !tbaa !12
  ret i32 %11
}

; Function Attrs: inlinehint nounwind uwtable
define internal i32 @Gia_ObjId(ptr noundef %0, ptr noundef %1) #3 {
  %3 = alloca ptr, align 8
  %4 = alloca ptr, align 8
  store ptr %0, ptr %3, align 8, !tbaa !3
  store ptr %1, ptr %4, align 8, !tbaa !58
  %5 = load ptr, ptr %4, align 8, !tbaa !58
  %6 = load ptr, ptr %3, align 8, !tbaa !3
  %7 = getelementptr inbounds nuw %struct.Gia_Man_t_, ptr %6, i32 0, i32 6
  %8 = load ptr, ptr %7, align 8, !tbaa !59
  %9 = ptrtoint ptr %5 to i64
  %10 = ptrtoint ptr %8 to i64
  %11 = sub i64 %9, %10
  %12 = sdiv exact i64 %11, 12
  %13 = trunc i64 %12 to i32
  ret i32 %13
}

; Function Attrs: inlinehint nounwind uwtable
define internal ptr @Gia_ManCi(ptr noundef %0, i32 noundef %1) #3 {
  %3 = alloca ptr, align 8
  %4 = alloca i32, align 4
  store ptr %0, ptr %3, align 8, !tbaa !3
  store i32 %1, ptr %4, align 4, !tbaa !12
  %5 = load ptr, ptr %3, align 8, !tbaa !3
  %6 = load ptr, ptr %3, align 8, !tbaa !3
  %7 = getelementptr inbounds nuw %struct.Gia_Man_t_, ptr %6, i32 0, i32 11
  %8 = load ptr, ptr %7, align 8, !tbaa !52
  %9 = load i32, ptr %4, align 4, !tbaa !12
  %10 = call i32 @Vec_IntEntry(ptr noundef %8, i32 noundef %9)
  %11 = call ptr @Gia_ManObj(ptr noundef %5, i32 noundef %10)
  ret ptr %11
}

; Function Attrs: inlinehint nounwind uwtable
define internal i32 @Gia_ManPoNum(ptr noundef %0) #3 {
  %2 = alloca ptr, align 8
  store ptr %0, ptr %2, align 8, !tbaa !3
  %3 = load ptr, ptr %2, align 8, !tbaa !3
  %4 = getelementptr inbounds nuw %struct.Gia_Man_t_, ptr %3, i32 0, i32 12
  %5 = load ptr, ptr %4, align 8, !tbaa !71
  %6 = call i32 @Vec_IntSize(ptr noundef %5)
  %7 = load ptr, ptr %2, align 8, !tbaa !3
  %8 = getelementptr inbounds nuw %struct.Gia_Man_t_, ptr %7, i32 0, i32 2
  %9 = load i32, ptr %8, align 8, !tbaa !72
  %10 = sub nsw i32 %6, %9
  ret i32 %10
}

; Function Attrs: inlinehint nounwind uwtable
define internal i32 @Gia_ManPiNum(ptr noundef %0) #3 {
  %2 = alloca ptr, align 8
  store ptr %0, ptr %2, align 8, !tbaa !3
  %3 = load ptr, ptr %2, align 8, !tbaa !3
  %4 = getelementptr inbounds nuw %struct.Gia_Man_t_, ptr %3, i32 0, i32 11
  %5 = load ptr, ptr %4, align 8, !tbaa !52
  %6 = call i32 @Vec_IntSize(ptr noundef %5)
  %7 = load ptr, ptr %2, align 8, !tbaa !3
  %8 = getelementptr inbounds nuw %struct.Gia_Man_t_, ptr %7, i32 0, i32 2
  %9 = load i32, ptr %8, align 8, !tbaa !72
  %10 = sub nsw i32 %6, %9
  ret i32 %10
}

; Function Attrs: inlinehint nounwind uwtable
define internal i32 @Gia_ManRegNum(ptr noundef %0) #3 {
  %2 = alloca ptr, align 8
  store ptr %0, ptr %2, align 8, !tbaa !3
  %3 = load ptr, ptr %2, align 8, !tbaa !3
  %4 = getelementptr inbounds nuw %struct.Gia_Man_t_, ptr %3, i32 0, i32 2
  %5 = load i32, ptr %4, align 8, !tbaa !72
  ret i32 %5
}

; Function Attrs: nounwind uwtable
define ptr @Bmcg_ManGenerateCex(ptr noundef %0, i32 noundef %1, i32 noundef %2, i32 noundef %3) #0 {
  %5 = alloca ptr, align 8
  %6 = alloca i32, align 4
  %7 = alloca i32, align 4
  %8 = alloca i32, align 4
  %9 = alloca ptr, align 8
  %10 = alloca ptr, align 8
  %11 = alloca i32, align 4
  %12 = alloca i32, align 4
  %13 = alloca i32, align 4
  %14 = alloca i32, align 4
  store ptr %0, ptr %5, align 8, !tbaa !10
  store i32 %1, ptr %6, align 4, !tbaa !12
  store i32 %2, ptr %7, align 4, !tbaa !12
  store i32 %3, ptr %8, align 4, !tbaa !12
  call void @llvm.lifetime.start.p0(i64 8, ptr %9) #13
  %15 = load ptr, ptr %5, align 8, !tbaa !10
  %16 = getelementptr inbounds nuw %struct.Bmcg_Man_t_, ptr %15, i32 0, i32 1
  %17 = load ptr, ptr %16, align 8, !tbaa !20
  %18 = call i32 @Gia_ManRegNum(ptr noundef %17)
  %19 = load ptr, ptr %5, align 8, !tbaa !10
  %20 = getelementptr inbounds nuw %struct.Bmcg_Man_t_, ptr %19, i32 0, i32 1
  %21 = load ptr, ptr %20, align 8, !tbaa !20
  %22 = call i32 @Gia_ManPiNum(ptr noundef %21)
  %23 = load ptr, ptr %5, align 8, !tbaa !10
  %24 = getelementptr inbounds nuw %struct.Bmcg_Man_t_, ptr %23, i32 0, i32 1
  %25 = load ptr, ptr %24, align 8, !tbaa !20
  %26 = call i32 @Gia_ManPoNum(ptr noundef %25)
  %27 = load i32, ptr %7, align 4, !tbaa !12
  %28 = load ptr, ptr %5, align 8, !tbaa !10
  %29 = getelementptr inbounds nuw %struct.Bmcg_Man_t_, ptr %28, i32 0, i32 1
  %30 = load ptr, ptr %29, align 8, !tbaa !20
  %31 = call i32 @Gia_ManPoNum(ptr noundef %30)
  %32 = mul nsw i32 %27, %31
  %33 = load i32, ptr %6, align 4, !tbaa !12
  %34 = add nsw i32 %32, %33
  %35 = call ptr @Abc_CexMakeTriv(i32 noundef %18, i32 noundef %22, i32 noundef %26, i32 noundef %34)
  store ptr %35, ptr %9, align 8, !tbaa !94
  call void @llvm.lifetime.start.p0(i64 8, ptr %10) #13
  call void @llvm.lifetime.start.p0(i64 4, ptr %11) #13
  store i32 0, ptr %11, align 4, !tbaa !12
  br label %36

36:                                               ; preds = %103, %4
  %37 = load i32, ptr %11, align 4, !tbaa !12
  %38 = load ptr, ptr %5, align 8, !tbaa !10
  %39 = getelementptr inbounds nuw %struct.Bmcg_Man_t_, ptr %38, i32 0, i32 2
  %40 = load ptr, ptr %39, align 8, !tbaa !21
  %41 = call i32 @Gia_ManPiNum(ptr noundef %40)
  %42 = icmp slt i32 %37, %41
  br i1 %42, label %43, label %50

43:                                               ; preds = %36
  %44 = load ptr, ptr %5, align 8, !tbaa !10
  %45 = getelementptr inbounds nuw %struct.Bmcg_Man_t_, ptr %44, i32 0, i32 2
  %46 = load ptr, ptr %45, align 8, !tbaa !21
  %47 = load i32, ptr %11, align 4, !tbaa !12
  %48 = call ptr @Gia_ManCi(ptr noundef %46, i32 noundef %47)
  store ptr %48, ptr %10, align 8, !tbaa !58
  %49 = icmp ne ptr %48, null
  br label %50

50:                                               ; preds = %43, %36
  %51 = phi i1 [ false, %36 ], [ %49, %43 ]
  br i1 %51, label %52, label %106

52:                                               ; preds = %50
  call void @llvm.lifetime.start.p0(i64 4, ptr %12) #13
  %53 = load ptr, ptr %5, align 8, !tbaa !10
  %54 = getelementptr inbounds nuw %struct.Bmcg_Man_t_, ptr %53, i32 0, i32 5
  %55 = load ptr, ptr %5, align 8, !tbaa !10
  %56 = getelementptr inbounds nuw %struct.Bmcg_Man_t_, ptr %55, i32 0, i32 2
  %57 = load ptr, ptr %56, align 8, !tbaa !21
  %58 = load ptr, ptr %10, align 8, !tbaa !58
  %59 = call i32 @Gia_ObjId(ptr noundef %57, ptr noundef %58)
  %60 = call i32 @Vec_IntEntry(ptr noundef %54, i32 noundef %59)
  store i32 %60, ptr %12, align 4, !tbaa !12
  %61 = load i32, ptr %12, align 4, !tbaa !12
  %62 = icmp sgt i32 %61, 0
  br i1 %62, label %63, label %102

63:                                               ; preds = %52
  %64 = load ptr, ptr %5, align 8, !tbaa !10
  %65 = getelementptr inbounds nuw %struct.Bmcg_Man_t_, ptr %64, i32 0, i32 7
  %66 = load i32, ptr %8, align 4, !tbaa !12
  %67 = sext i32 %66 to i64
  %68 = getelementptr inbounds [100 x ptr], ptr %65, i64 0, i64 %67
  %69 = load ptr, ptr %68, align 8, !tbaa !25
  %70 = load i32, ptr %12, align 4, !tbaa !12
  %71 = call i32 @bmcg_sat_solver_read_cex_varvalue(ptr noundef %69, i32 noundef %70)
  %72 = icmp ne i32 %71, 0
  br i1 %72, label %73, label %102

73:                                               ; preds = %63
  call void @llvm.lifetime.start.p0(i64 4, ptr %13) #13
  %74 = load ptr, ptr %5, align 8, !tbaa !10
  %75 = getelementptr inbounds nuw %struct.Bmcg_Man_t_, ptr %74, i32 0, i32 6
  %76 = load i32, ptr %11, align 4, !tbaa !12
  %77 = mul nsw i32 2, %76
  %78 = add nsw i32 %77, 0
  %79 = call i32 @Vec_IntEntry(ptr noundef %75, i32 noundef %78)
  store i32 %79, ptr %13, align 4, !tbaa !12
  call void @llvm.lifetime.start.p0(i64 4, ptr %14) #13
  %80 = load ptr, ptr %5, align 8, !tbaa !10
  %81 = getelementptr inbounds nuw %struct.Bmcg_Man_t_, ptr %80, i32 0, i32 6
  %82 = load i32, ptr %11, align 4, !tbaa !12
  %83 = mul nsw i32 2, %82
  %84 = add nsw i32 %83, 1
  %85 = call i32 @Vec_IntEntry(ptr noundef %81, i32 noundef %84)
  store i32 %85, ptr %14, align 4, !tbaa !12
  %86 = load ptr, ptr %9, align 8, !tbaa !94
  %87 = getelementptr inbounds nuw %struct.Abc_Cex_t_, ptr %86, i32 0, i32 5
  %88 = getelementptr inbounds [0 x i32], ptr %87, i64 0, i64 0
  %89 = load ptr, ptr %5, align 8, !tbaa !10
  %90 = getelementptr inbounds nuw %struct.Bmcg_Man_t_, ptr %89, i32 0, i32 1
  %91 = load ptr, ptr %90, align 8, !tbaa !20
  %92 = call i32 @Gia_ManRegNum(ptr noundef %91)
  %93 = load i32, ptr %14, align 4, !tbaa !12
  %94 = load ptr, ptr %5, align 8, !tbaa !10
  %95 = getelementptr inbounds nuw %struct.Bmcg_Man_t_, ptr %94, i32 0, i32 1
  %96 = load ptr, ptr %95, align 8, !tbaa !20
  %97 = call i32 @Gia_ManPiNum(ptr noundef %96)
  %98 = mul nsw i32 %93, %97
  %99 = add nsw i32 %92, %98
  %100 = load i32, ptr %13, align 4, !tbaa !12
  %101 = add nsw i32 %99, %100
  call void @Abc_InfoSetBit(ptr noundef %88, i32 noundef %101)
  call void @llvm.lifetime.end.p0(i64 4, ptr %14) #13
  call void @llvm.lifetime.end.p0(i64 4, ptr %13) #13
  br label %102

102:                                              ; preds = %73, %63, %52
  call void @llvm.lifetime.end.p0(i64 4, ptr %12) #13
  br label %103

103:                                              ; preds = %102
  %104 = load i32, ptr %11, align 4, !tbaa !12
  %105 = add nsw i32 %104, 1
  store i32 %105, ptr %11, align 4, !tbaa !12
  br label %36, !llvm.loop !95

106:                                              ; preds = %50
  %107 = load ptr, ptr %9, align 8, !tbaa !94
  call void @llvm.lifetime.end.p0(i64 4, ptr %11) #13
  call void @llvm.lifetime.end.p0(i64 8, ptr %10) #13
  call void @llvm.lifetime.end.p0(i64 8, ptr %9) #13
  ret ptr %107
}