; Function Attrs: nounwind uwtable
define ptr @Bmcg_ManGenerateCex(ptr noundef readonly captures(none) %0, i32 noundef %1, i32 noundef %2, i32 noundef %3) local_unnamed_addr #0 {
  %5 = getelementptr inbounds nuw i8, ptr %0, i64 8
  %6 = load ptr, ptr %5, align 8, !tbaa !16
  %7 = getelementptr i8, ptr %6, i64 16
  %.val43 = load i32, ptr %7, align 8, !tbaa !51
  %8 = getelementptr i8, ptr %6, i64 64
  %.val30 = load ptr, ptr %8, align 8, !tbaa !37
  %9 = getelementptr i8, ptr %.val30, i64 4
  %.val30.val = load i32, ptr %9, align 4, !tbaa !38
  %10 = sub nsw i32 %.val30.val, %.val43
  %11 = getelementptr i8, ptr %6, i64 72
  %.val42 = load ptr, ptr %11, align 8, !tbaa !52
  %12 = getelementptr i8, ptr %.val42, i64 4
  %.val42.val = load i32, ptr %12, align 4, !tbaa !38
  %13 = sub nsw i32 %.val42.val, %.val43
  %14 = mul nsw i32 %13, %2
  %15 = add nsw i32 %14, %1
  %16 = tail call ptr @Abc_CexMakeTriv(i32 noundef %.val43, i32 noundef %10, i32 noundef %13, i32 noundef %15) #18
  %17 = getelementptr inbounds nuw i8, ptr %0, i64 16
  %18 = load ptr, ptr %17, align 8, !tbaa !34
  %19 = getelementptr i8, ptr %18, i64 16
  %.val3147 = load i32, ptr %19, align 8, !tbaa !51
  %20 = getelementptr i8, ptr %18, i64 64
  %.val3248 = load ptr, ptr %20, align 8, !tbaa !37
  %21 = getelementptr i8, ptr %.val3248, i64 4
  %.val32.val49 = load i32, ptr %21, align 4, !tbaa !38
  %22 = icmp sgt i32 %.val32.val49, %.val3147
  br i1 %22, label %.lr.ph, label %.critedge

.lr.ph:                                           ; preds = %4
  %23 = getelementptr i8, ptr %0, i64 56
  %24 = getelementptr inbounds nuw i8, ptr %0, i64 80
  %25 = sext i32 %3 to i64
  %26 = getelementptr inbounds [100 x ptr], ptr %24, i64 0, i64 %25
  %27 = getelementptr i8, ptr %0, i64 72
  %28 = getelementptr inbounds nuw i8, ptr %16, i64 20
  br label %29

29:                                               ; preds = %.lr.ph, %65
  %indvars.iv = phi i64 [ 0, %.lr.ph ], [ %indvars.iv.next, %65 ]
  %.val3251 = phi ptr [ %.val3248, %.lr.ph ], [ %.val32, %65 ]
  %30 = phi ptr [ %18, %.lr.ph ], [ %66, %65 ]
  %31 = getelementptr i8, ptr %30, i64 32
  %.val45 = load ptr, ptr %31, align 8, !tbaa !50
  %.not = icmp eq ptr %.val45, null
  br i1 %.not, label %.critedge, label %32

32:                                               ; preds = %29
  %33 = getelementptr i8, ptr %.val3251, i64 8
  %.val46.val = load ptr, ptr %33, align 8, !tbaa !39
  %34 = getelementptr inbounds nuw i32, ptr %.val46.val, i64 %indvars.iv
  %35 = load i32, ptr %34, align 4, !tbaa !3
  %.val38 = load ptr, ptr %23, align 8, !tbaa !39
  %36 = sext i32 %35 to i64
  %37 = getelementptr inbounds i32, ptr %.val38, i64 %36
  %38 = load i32, ptr %37, align 4, !tbaa !3
  %39 = icmp sgt i32 %38, 0
  br i1 %39, label %40, label %65

40:                                               ; preds = %32
  %41 = load ptr, ptr %26, align 8, !tbaa !43
  %42 = tail call i32 @bmcg_sat_solver_read_cex_varvalue(ptr noundef %41, i32 noundef %38) #18
  %.not29 = icmp eq i32 %42, 0
  br i1 %.not29, label %65, label %43

43:                                               ; preds = %40
  %44 = shl nuw nsw i64 %indvars.iv, 1
  %.val37 = load ptr, ptr %27, align 8, !tbaa !39
  %45 = getelementptr inbounds nuw i32, ptr %.val37, i64 %44
  %46 = load i32, ptr %45, align 4, !tbaa !3
  %47 = or disjoint i64 %44, 1
  %48 = getelementptr inbounds nuw i32, ptr %.val37, i64 %47
  %49 = load i32, ptr %48, align 4, !tbaa !3
  %50 = load ptr, ptr %5, align 8, !tbaa !16
  %51 = getelementptr i8, ptr %50, i64 16
  %.val44 = load i32, ptr %51, align 8, !tbaa !51
  %52 = getelementptr i8, ptr %50, i64 64
  %.val34 = load ptr, ptr %52, align 8, !tbaa !37
  %53 = getelementptr i8, ptr %.val34, i64 4
  %.val34.val = load i32, ptr %53, align 4, !tbaa !38
  %54 = sub nsw i32 %.val34.val, %.val44
  %55 = mul nsw i32 %54, %49
  %56 = add i32 %.val44, %46
  %57 = add i32 %56, %55
  %58 = and i32 %57, 31
  %59 = shl nuw i32 1, %58
  %60 = ashr i32 %57, 5
  %61 = sext i32 %60 to i64
  %62 = getelementptr inbounds i32, ptr %28, i64 %61
  %63 = load i32, ptr %62, align 4, !tbaa !3
  %64 = or i32 %59, %63
  store i32 %64, ptr %62, align 4, !tbaa !3
  br label %65

65:                                               ; preds = %43, %40, %32
  %indvars.iv.next = add nuw nsw i64 %indvars.iv, 1
  %66 = load ptr, ptr %17, align 8, !tbaa !34
  %67 = getelementptr i8, ptr %66, i64 16
  %.val31 = load i32, ptr %67, align 8, !tbaa !51
  %68 = getelementptr i8, ptr %66, i64 64
  %.val32 = load ptr, ptr %68, align 8, !tbaa !37
  %69 = getelementptr i8, ptr %.val32, i64 4
  %.val32.val = load i32, ptr %69, align 4, !tbaa !38
  %70 = sub nsw i32 %.val32.val, %.val31
  %71 = sext i32 %70 to i64
  %72 = icmp slt i64 %indvars.iv.next, %71
  br i1 %72, label %29, label %.critedge, !llvm.loop !88

.critedge:                                        ; preds = %29, %65, %4
  ret ptr %16
}